target datalayout = "e-m:e-p270:32:32-p271:32:32-p272:64:64-i64:64-i128:128-f80:128-n8:16:32:64-S128"
target triple = "x86_64-pc-linux-gnu"

%struct.pmix_ring_msg = type { i32, ptr, ptr }

@pmix_stepd_hostlist = internal global ptr null, align 8
@pmix_ring_children = internal global i32 0, align 4
@pmix_ring_msgs = internal global ptr null, align 8

; Function Attrs: nounwind uwtable
define dso_local i32 @pmix_ring_finalize() #0 {
  %1 = alloca i32, align 4
  %2 = alloca i32, align 4
  %3 = alloca ptr, align 8
  call void @llvm.lifetime.start.p0(i64 4, ptr %1) #6
  store i32 0, ptr %1, align 4
  %4 = load ptr, ptr @pmix_ring_msgs, align 8
  %5 = icmp ne ptr %4, null
  br i1 %5, label %6, label %42

6:                                                ; preds = %0
  call void @llvm.lifetime.start.p0(i64 4, ptr %2) #6
  store i32 0, ptr %2, align 4
  br label %7

7:                                                ; preds = %38, %6
  %8 = load i32, ptr %2, align 4
  %9 = load i32, ptr @pmix_ring_children, align 4
  %10 = icmp slt i32 %8, %9
  br i1 %10, label %11, label %41

11:                                               ; preds = %7
  call void @llvm.lifetime.start.p0(i64 8, ptr %3) #6
  %12 = load ptr, ptr @pmix_ring_msgs, align 8
  %13 = load i32, ptr %2, align 4
  %14 = sext i32 %13 to i64
  %15 = getelementptr inbounds %struct.pmix_ring_msg, ptr %12, i64 %14
  store ptr %15, ptr %3, align 8
  %16 = load ptr, ptr %3, align 8
  %17 = getelementptr inbounds nuw %struct.pmix_ring_msg, ptr %16, i32 0, i32 0
  store i32 0, ptr %17, align 8
  %18 = load ptr, ptr %3, align 8
  %19 = getelementptr inbounds nuw %struct.pmix_ring_msg, ptr %18, i32 0, i32 1
  %20 = load ptr, ptr %19, align 8
  %21 = icmp ne ptr %20, null
  br i1 %21, label %22, label %27

22:                                               ; preds = %11
  %23 = load ptr, ptr %3, align 8
  %24 = getelementptr inbounds nuw %struct.pmix_ring_msg, ptr %23, i32 0, i32 1
  call void @slurm_xfree(ptr noundef %24)
  %25 = load ptr, ptr %3, align 8
  %26 = getelementptr inbounds nuw %struct.pmix_ring_msg, ptr %25, i32 0, i32 1
  store ptr null, ptr %26, align 8
  br label %27

27:                                               ; preds = %22, %11
  %28 = load ptr, ptr %3, align 8
  %29 = getelementptr inbounds nuw %struct.pmix_ring_msg, ptr %28, i32 0, i32 2
  %30 = load ptr, ptr %29, align 8
  %31 = icmp ne ptr %30, null
  br i1 %31, label %32, label %37

32:                                               ; preds = %27
  %33 = load ptr, ptr %3, align 8
  %34 = getelementptr inbounds nuw %struct.pmix_ring_msg, ptr %33, i32 0, i32 2
  call void @slurm_xfree(ptr noundef %34)
  %35 = load ptr, ptr %3, align 8
  %36 = getelementptr inbounds nuw %struct.pmix_ring_msg, ptr %35, i32 0, i32 2
  store ptr null, ptr %36, align 8
  br label %37

37:                                               ; preds = %32, %27
  call void @llvm.lifetime.end.p0(i64 8, ptr %3) #6
  br label %38

38:                                               ; preds = %37
  %39 = load i32, ptr %2, align 4
  %40 = add nsw i32 %39, 1
  store i32 %40, ptr %2, align 4
  br label %7, !llvm.loop !11

41:                                               ; preds = %7
  call void @slurm_xfree(ptr noundef @pmix_ring_msgs)
  store ptr null, ptr @pmix_ring_msgs, align 8
  call void @llvm.lifetime.end.p0(i64 4, ptr %2) #6
  br label %42

42:                                               ; preds = %41, %0
  br label %43

43:                                               ; preds = %42
  %44 = load ptr, ptr @pmix_stepd_hostlist, align 8
  %45 = icmp ne ptr %44, null
  br i1 %45, label %46, label %48

46:                                               ; preds = %43
  %47 = load ptr, ptr @pmix_stepd_hostlist, align 8
  call void @slurm_hostlist_destroy(ptr noundef %47)
  br label %48

48:                                               ; preds = %46, %43
  store ptr null, ptr @pmix_stepd_hostlist, align 8
  br label %49

49:                                               ; preds = %48
  br label %50

50:                                               ; preds = %49
  %51 = load i32, ptr %1, align 4
  call void @llvm.lifetime.end.p0(i64 4, ptr %1) #6
  ret i32 %51
}