; Function Attrs: nounwind uwtable
define dso_local noundef i32 @pmix_ring_finalize() local_unnamed_addr #2 {
  %1 = load ptr, ptr @pmix_ring_msgs, align 8
  %.not = icmp eq ptr %1, null
  br i1 %.not, label %17, label %.preheader

.preheader:                                       ; preds = %0
  %2 = load i32, ptr @pmix_ring_children, align 4
  %3 = icmp sgt i32 %2, 0
  br i1 %3, label %.lr.ph, label %._crit_edge

.lr.ph:                                           ; preds = %.preheader, %13
  %indvars.iv = phi i64 [ %indvars.iv.next, %13 ], [ 0, %.preheader ]
  %4 = load ptr, ptr @pmix_ring_msgs, align 8
  %5 = getelementptr inbounds nuw %struct.pmix_ring_msg, ptr %4, i64 %indvars.iv
  store i32 0, ptr %5, align 8
  %6 = getelementptr inbounds nuw i8, ptr %5, i64 8
  %7 = load ptr, ptr %6, align 8
  %.not12 = icmp eq ptr %7, null
  br i1 %.not12, label %9, label %8

8:                                                ; preds = %.lr.ph
  tail call void @slurm_xfree(ptr noundef nonnull %6) #9
  store ptr null, ptr %6, align 8
  br label %9

9:                                                ; preds = %8, %.lr.ph
  %10 = getelementptr inbounds nuw i8, ptr %5, i64 16
  %11 = load ptr, ptr %10, align 8
  %.not13 = icmp eq ptr %11, null
  br i1 %.not13, label %13, label %12

12:                                               ; preds = %9
  tail call void @slurm_xfree(ptr noundef nonnull %10) #9
  store ptr null, ptr %10, align 8
  br label %13

13:                                               ; preds = %12, %9
  %indvars.iv.next = add nuw nsw i64 %indvars.iv, 1
  %14 = load i32, ptr @pmix_ring_children, align 4
  %15 = sext i32 %14 to i64
  %16 = icmp slt i64 %indvars.iv.next, %15
  br i1 %16, label %.lr.ph, label %._crit_edge, !llvm.loop !11

._crit_edge:                                      ; preds = %13, %.preheader
  tail call void @slurm_xfree(ptr noundef nonnull @pmix_ring_msgs) #9
  store ptr null, ptr @pmix_ring_msgs, align 8
  br label %17

17:                                               ; preds = %0, %._crit_edge
  %18 = load ptr, ptr @pmix_stepd_hostlist, align 8
  %.not11 = icmp eq ptr %18, null
  br i1 %.not11, label %20, label %19

19:                                               ; preds = %17
  tail call void @slurm_hostlist_destroy(ptr noundef nonnull %18) #9
  br label %20

20:                                               ; preds = %19, %17
  store ptr null, ptr @pmix_stepd_hostlist, align 8
  ret i32 0
}